; Function Attrs: mustprogress nofree norecurse nosync nounwind willreturn memory(argmem: read) uwtable
define internal noundef i32 @_ZL9bond_sortPKvS0_(ptr noundef readonly captures(none) %0, ptr noundef readonly captures(none) %1) #4 {
  %3 = load i32, ptr %0, align 4, !tbaa !36
  %4 = load i32, ptr %1, align 4, !tbaa !36
  %5 = icmp eq i32 %3, %4
  br i1 %5, label %6, label %12

6:                                                ; preds = %2
  %7 = getelementptr inbounds nuw i8, ptr %0, i64 4
  %8 = load i32, ptr %7, align 4, !tbaa !38
  %9 = getelementptr inbounds nuw i8, ptr %1, i64 4
  %10 = load i32, ptr %9, align 4, !tbaa !38
  %11 = sub nsw i32 %8, %10
  br label %14

12:                                               ; preds = %2
  %13 = sub nsw i32 %3, %4
  br label %14

14:                                               ; preds = %12, %6
  %.0 = phi i32 [ %11, %6 ], [ %13, %12 ]
  ret i32 %.0
}